target datalayout = "e-m:e-p270:32:32-p271:32:32-p272:64:64-i64:64-i128:128-f80:128-n8:16:32:64-S128"
target triple = "x86_64-unknown-linux-gnu"

%struct._upb_DefPool_Init = type { ptr, ptr, ptr, %struct.upb_StringView }
%struct.upb_StringView = type { ptr, i64 }

@.str = private unnamed_addr constant [66 x i8] c"envoy.extensions.filters.http.stateful_session.v3.StatefulSession\00", align 1
@.str.1 = private unnamed_addr constant [74 x i8] c"envoy.extensions.filters.http.stateful_session.v3.StatefulSessionPerRoute\00", align 1
@envoy_extensions_filters_http_stateful_session_v3_stateful_session_proto_upbdefinit = external global %struct._upb_DefPool_Init, align 8
@envoy_extensions_http_stateful_session_cookie_v3_cookie_proto_upbdefinit = external global %struct._upb_DefPool_Init, align 8
@.str.8 = private unnamed_addr constant [73 x i8] c"envoy.extensions.http.stateful_session.cookie.v3.CookieBasedSessionState\00", align 1

; Function Attrs: mustprogress uwtable
define linkonce_odr ptr @envoy_extensions_http_stateful_session_cookie_v3_CookieBasedSessionState_getmsgdef(ptr noundef %s) #5 comdat {
entry:
  %s.addr = alloca ptr, align 8
  store ptr %s, ptr %s.addr, align 8
  %0 = load ptr, ptr %s.addr, align 8
  %call = call zeroext i1 @_upb_DefPool_LoadDefInit(ptr noundef %0, ptr noundef @envoy_extensions_http_stateful_session_cookie_v3_cookie_proto_upbdefinit)
  %1 = load ptr, ptr %s.addr, align 8
  %call1 = call ptr @upb_DefPool_FindMessageByName(ptr noundef %1, ptr noundef @.str.8)
  ret ptr %call1
}

; Function Attrs: mustprogress uwtable
define linkonce_odr ptr @envoy_extensions_filters_http_stateful_session_v3_StatefulSessionPerRoute_getmsgdef(ptr noundef %s) #5 comdat {
entry:
  %s.addr = alloca ptr, align 8
  store ptr %s, ptr %s.addr, align 8
  %0 = load ptr, ptr %s.addr, align 8
  %call = call zeroext i1 @_upb_DefPool_LoadDefInit(ptr noundef %0, ptr noundef @envoy_extensions_filters_http_stateful_session_v3_stateful_session_proto_upbdefinit)
  %1 = load ptr, ptr %s.addr, align 8
  %call1 = call ptr @upb_DefPool_FindMessageByName(ptr noundef %1, ptr noundef @.str.1)
  ret ptr %call1
}

; Function Attrs: mustprogress uwtable
define linkonce_odr ptr @envoy_extensions_filters_http_stateful_session_v3_StatefulSession_getmsgdef(ptr noundef %s) #5 comdat {
entry:
  %s.addr = alloca ptr, align 8
  store ptr %s, ptr %s.addr, align 8
  %0 = load ptr, ptr %s.addr, align 8
  %call = call zeroext i1 @_upb_DefPool_LoadDefInit(ptr noundef %0, ptr noundef @envoy_extensions_filters_http_stateful_session_v3_stateful_session_proto_upbdefinit)
  %1 = load ptr, ptr %s.addr, align 8
  %call1 = call ptr @upb_DefPool_FindMessageByName(ptr noundef %1, ptr noundef @.str)
  ret ptr %call1
}

; Function Attrs: mustprogress uwtable
define void @_ZNK9grpc_core28XdsHttpStatefulSessionFilter14PopulateSymtabEP11upb_DefPool(ptr noundef nonnull align 8 dereferenceable(8) %this, ptr noundef %symtab) unnamed_addr #5 align 2 {
entry:
  %this.addr = alloca ptr, align 8
  %symtab.addr = alloca ptr, align 8
  store ptr %this, ptr %this.addr, align 8
  store ptr %symtab, ptr %symtab.addr, align 8
  %0 = load ptr, ptr %symtab.addr, align 8
  %call = call ptr @envoy_extensions_filters_http_stateful_session_v3_StatefulSession_getmsgdef(ptr noundef %0)
  %1 = load ptr, ptr %symtab.addr, align 8
  %call2 = call ptr @envoy_extensions_filters_http_stateful_session_v3_StatefulSessionPerRoute_getmsgdef(ptr noundef %1)
  %2 = load ptr, ptr %symtab.addr, align 8
  %call3 = call ptr @envoy_extensions_http_stateful_session_cookie_v3_CookieBasedSessionState_getmsgdef(ptr noundef %2)
  ret void
}