; Function Attrs: mustprogress uwtable
define void @_ZNK9grpc_core28XdsHttpStatefulSessionFilter14PopulateSymtabEP11upb_DefPool(ptr nocapture nonnull readnone align 8 %this, ptr noundef %symtab) unnamed_addr #4 align 2 {
entry:
  %call.i = tail call zeroext i1 @_upb_DefPool_LoadDefInit(ptr noundef %symtab, ptr noundef nonnull @envoy_extensions_filters_http_stateful_session_v3_stateful_session_proto_upbdefinit)
  %call1.i = tail call ptr @upb_DefPool_FindMessageByName(ptr noundef %symtab, ptr noundef nonnull @.str)
  %call.i3 = tail call zeroext i1 @_upb_DefPool_LoadDefInit(ptr noundef %symtab, ptr noundef nonnull @envoy_extensions_filters_http_stateful_session_v3_stateful_session_proto_upbdefinit)
  %call1.i4 = tail call ptr @upb_DefPool_FindMessageByName(ptr noundef %symtab, ptr noundef nonnull @.str.1)
  %call.i5 = tail call zeroext i1 @_upb_DefPool_LoadDefInit(ptr noundef %symtab, ptr noundef nonnull @envoy_extensions_http_stateful_session_cookie_v3_cookie_proto_upbdefinit)
  %call1.i6 = tail call ptr @upb_DefPool_FindMessageByName(ptr noundef %symtab, ptr noundef nonnull @.str.8)
  ret void
}